target datalayout = "e-m:e-p270:32:32-p271:32:32-p272:64:64-i64:64-i128:128-f80:128-n8:16:32:64-S128"
target triple = "x86_64-pc-linux-gnu"

%class.QPen = type { ptr }
%class.QColor = type <{ i32, %"union.QColor::CT", [2 x i8] }>
%"union.QColor::CT" = type { %struct.anon }
%struct.anon = type { i16, i16, i16, i16, i16 }
%class.RtpAudioGraph = type <{ %class.QObject, ptr, i32, %class.QColor, [4 x i8] }>
%class.QObject = type { ptr, %class.QScopedPointer }
%class.QScopedPointer = type { ptr }
%class.QCPAbstractPlottable = type { %class.QCPLayerable.base, %class.QString, i8, i8, %class.QPen, %class.QBrush, %class.QPointer.25, %class.QPointer.25, i32, %class.QCPDataSelection, ptr }
%class.QCPLayerable.base = type <{ %class.QObject, i8, [7 x i8], ptr, %class.QPointer, ptr, i8 }>
%class.QPointer = type { %class.QWeakPointer }
%class.QWeakPointer = type { ptr, ptr }
%class.QString = type { %struct.QArrayDataPointer.24 }
%struct.QArrayDataPointer.24 = type { ptr, ptr, i64 }
%class.QBrush = type { %"class.std::unique_ptr" }
%"class.std::unique_ptr" = type { %"struct.std::__uniq_ptr_data" }
%"struct.std::__uniq_ptr_data" = type { %"class.std::__uniq_ptr_impl" }
%"class.std::__uniq_ptr_impl" = type { %"class.std::tuple" }
%"class.std::tuple" = type { %"struct.std::_Tuple_impl" }
%"struct.std::_Tuple_impl" = type { %"struct.std::_Head_base.18" }
%"struct.std::_Head_base.18" = type { ptr }
%class.QPointer.25 = type { %class.QWeakPointer }
%class.QCPDataSelection = type { %class.QList.26 }
%class.QList.26 = type { %struct.QArrayDataPointer.29 }
%struct.QArrayDataPointer.29 = type { ptr, ptr, i64 }
%class.QCPDataRange = type { i32, i32 }
%class.QBasicAtomicInteger = type { %"struct.std::atomic" }
%"struct.std::atomic" = type { %"struct.std::__atomic_base" }
%"struct.std::__atomic_base" = type { i32 }
%struct.QArrayData = type { %class.QBasicAtomicInteger, %class.QFlags.36, i64 }
%class.QFlags.36 = type { i32 }

; Function Attrs: mustprogress nounwind uwtable
define linkonce_odr noundef i32 @_ZNSt13__atomic_baseIiEmmEv(ptr noundef nonnull align 4 dereferenceable(4) %0) #2 comdat align 2 {
  %2 = alloca ptr, align 8
  %3 = alloca i32, align 4
  %4 = alloca i32, align 4
  store ptr %0, ptr %2, align 8
  %5 = load ptr, ptr %2, align 8
  %6 = getelementptr inbounds %"struct.std::__atomic_base", ptr %5, i32 0, i32 0
  store i32 1, ptr %3, align 4
  %7 = load i32, ptr %3, align 4
  %8 = atomicrmw sub ptr %6, i32 %7 seq_cst, align 4
  %9 = sub i32 %8, %7
  store i32 %9, ptr %4, align 4
  %10 = load i32, ptr %4, align 4
  ret i32 %10
}

; Function Attrs: mustprogress nounwind uwtable
define linkonce_odr void @_ZNSt12_Destroy_auxILb1EE9__destroyIP12QCPDataRangeEEvT_S4_(ptr noundef %0, ptr noundef %1) #2 comdat align 2 {
  %3 = alloca ptr, align 8
  %4 = alloca ptr, align 8
  store ptr %0, ptr %3, align 8
  store ptr %1, ptr %4, align 8
  ret void
}

; Function Attrs: mustprogress nounwind uwtable
define linkonce_odr noundef zeroext i1 @_ZN10QAtomicOpsIiE5derefIiEEbRSt6atomicIT_E(ptr noundef nonnull align 4 dereferenceable(4) %0) #2 comdat align 2 {
  %2 = alloca ptr, align 8
  store ptr %0, ptr %2, align 8
  %3 = load ptr, ptr %2, align 8
  %4 = call noundef i32 @_ZNSt13__atomic_baseIiEmmEv(ptr noundef nonnull align 4 dereferenceable(4) %3) #6
  %5 = icmp ne i32 %4, 0
  ret i1 %5
}

; Function Attrs: mustprogress uwtable
define linkonce_odr void @_ZSt8_DestroyIP12QCPDataRangeEvT_S2_(ptr noundef %0, ptr noundef %1) #0 comdat {
  %3 = alloca ptr, align 8
  %4 = alloca ptr, align 8
  store ptr %0, ptr %3, align 8
  store ptr %1, ptr %4, align 8
  %5 = load ptr, ptr %3, align 8
  %6 = load ptr, ptr %4, align 8
  call void @_ZNSt12_Destroy_auxILb1EE9__destroyIP12QCPDataRangeEEvT_S4_(ptr noundef %5, ptr noundef %6)
  ret void
}

; Function Attrs: mustprogress nounwind uwtable
define linkonce_odr noundef ptr @_ZN17QArrayDataPointerI12QCPDataRangeE4dataEv(ptr noundef nonnull align 8 dereferenceable(24) %0) #2 comdat align 2 {
  %2 = alloca ptr, align 8
  store ptr %0, ptr %2, align 8
  %3 = load ptr, ptr %2, align 8
  %4 = getelementptr inbounds %struct.QArrayDataPointer.29, ptr %3, i32 0, i32 1
  %5 = load ptr, ptr %4, align 8
  ret ptr %5
}

; Function Attrs: mustprogress nounwind uwtable
define linkonce_odr noundef zeroext i1 @_ZN19QBasicAtomicIntegerIiE5derefEv(ptr noundef nonnull align 4 dereferenceable(4) %0) #2 comdat align 2 {
  %2 = alloca ptr, align 8
  store ptr %0, ptr %2, align 8
  %3 = load ptr, ptr %2, align 8
  %4 = getelementptr inbounds %class.QBasicAtomicInteger, ptr %3, i32 0, i32 0
  %5 = call noundef zeroext i1 @_ZN10QAtomicOpsIiE5derefIiEEbRSt6atomicIT_E(ptr noundef nonnull align 4 dereferenceable(4) %4) #6
  ret i1 %5
}

; Function Attrs: mustprogress uwtable
define linkonce_odr void @_ZSt7destroyIP12QCPDataRangeEvT_S2_(ptr noundef %0, ptr noundef %1) #0 comdat {
  %3 = alloca ptr, align 8
  %4 = alloca ptr, align 8
  store ptr %0, ptr %3, align 8
  store ptr %1, ptr %4, align 8
  %5 = load ptr, ptr %3, align 8
  %6 = load ptr, ptr %4, align 8
  call void @_ZSt8_DestroyIP12QCPDataRangeEvT_S2_(ptr noundef %5, ptr noundef %6)
  ret void
}

; Function Attrs: mustprogress nounwind uwtable
define linkonce_odr noundef ptr @_ZN17QArrayDataPointerI12QCPDataRangeE3endEv(ptr noundef nonnull align 8 dereferenceable(24) %0) #2 comdat align 2 {
  %2 = alloca ptr, align 8
  store ptr %0, ptr %2, align 8
  %3 = load ptr, ptr %2, align 8
  %4 = call noundef ptr @_ZN17QArrayDataPointerI12QCPDataRangeE4dataEv(ptr noundef nonnull align 8 dereferenceable(24) %3) #6
  %5 = getelementptr inbounds %struct.QArrayDataPointer.29, ptr %3, i32 0, i32 2
  %6 = load i64, ptr %5, align 8
  %7 = getelementptr %class.QCPDataRange, ptr %4, i64 %6
  ret ptr %7
}

; Function Attrs: mustprogress nounwind uwtable
define linkonce_odr noundef ptr @_ZN17QArrayDataPointerI12QCPDataRangeE5beginEv(ptr noundef nonnull align 8 dereferenceable(24) %0) #2 comdat align 2 {
  %2 = alloca ptr, align 8
  store ptr %0, ptr %2, align 8
  %3 = load ptr, ptr %2, align 8
  %4 = call noundef ptr @_ZN17QArrayDataPointerI12QCPDataRangeE4dataEv(ptr noundef nonnull align 8 dereferenceable(24) %3) #6
  ret ptr %4
}

; Function Attrs: mustprogress nounwind uwtable
define linkonce_odr noundef zeroext i1 @_ZN10QArrayData5derefEv(ptr noundef nonnull align 8 dereferenceable(16) %0) #2 comdat align 2 {
  %2 = alloca ptr, align 8
  store ptr %0, ptr %2, align 8
  %3 = load ptr, ptr %2, align 8
  %4 = getelementptr inbounds %struct.QArrayData, ptr %3, i32 0, i32 0
  %5 = call noundef zeroext i1 @_ZN19QBasicAtomicIntegerIiE5derefEv(ptr noundef nonnull align 4 dereferenceable(4) %4) #6
  ret i1 %5
}

; Function Attrs: noreturn nounwind uwtable
define linkonce_odr hidden void @__clang_call_terminate(ptr noundef %0) #5 comdat {
  %2 = call ptr @__cxa_begin_catch(ptr %0) #6
  call void @_ZSt9terminatev() #7
  unreachable
}

; Function Attrs: mustprogress nounwind uwtable
define linkonce_odr void @_ZN15QTypedArrayDataI12QCPDataRangeE10deallocateEP10QArrayData(ptr noundef %0) #2 comdat align 2 {
  %2 = alloca ptr, align 8
  store ptr %0, ptr %2, align 8
  %3 = load ptr, ptr %2, align 8
  call void @_ZN10QArrayData10deallocateEPS_xx(ptr noundef %3, i64 noundef 8, i64 noundef 8) #6
  ret void
}

; Function Attrs: mustprogress uwtable
define linkonce_odr void @_ZN9QtPrivate16QGenericArrayOpsI12QCPDataRangeE10destroyAllEv(ptr noundef nonnull align 8 dereferenceable(24) %0) #0 comdat align 2 {
  %2 = alloca ptr, align 8
  store ptr %0, ptr %2, align 8
  %3 = load ptr, ptr %2, align 8
  %4 = call noundef ptr @_ZN17QArrayDataPointerI12QCPDataRangeE5beginEv(ptr noundef nonnull align 8 dereferenceable(24) %3) #6
  %5 = call noundef ptr @_ZN17QArrayDataPointerI12QCPDataRangeE3endEv(ptr noundef nonnull align 8 dereferenceable(24) %3) #6
  call void @_ZSt7destroyIP12QCPDataRangeEvT_S2_(ptr noundef %4, ptr noundef %5)
  ret void
}

; Function Attrs: mustprogress nounwind uwtable
define linkonce_odr noundef ptr @_ZN17QArrayDataPointerI12QCPDataRangeEptEv(ptr noundef nonnull align 8 dereferenceable(24) %0) #2 comdat align 2 {
  %2 = alloca ptr, align 8
  store ptr %0, ptr %2, align 8
  %3 = load ptr, ptr %2, align 8
  ret ptr %3
}

; Function Attrs: mustprogress nounwind uwtable
define linkonce_odr noundef zeroext i1 @_ZN17QArrayDataPointerI12QCPDataRangeE5derefEv(ptr noundef nonnull align 8 dereferenceable(24) %0) #2 comdat align 2 {
  %2 = alloca ptr, align 8
  store ptr %0, ptr %2, align 8
  %3 = load ptr, ptr %2, align 8
  %4 = getelementptr inbounds %struct.QArrayDataPointer.29, ptr %3, i32 0, i32 0
  %5 = load ptr, ptr %4, align 8
  %6 = icmp ne ptr %5, null
  br i1 %6, label %7, label %11

7:                                                ; preds = %1
  %8 = getelementptr inbounds %struct.QArrayDataPointer.29, ptr %3, i32 0, i32 0
  %9 = load ptr, ptr %8, align 8
  %10 = call noundef zeroext i1 @_ZN10QArrayData5derefEv(ptr noundef nonnull align 8 dereferenceable(16) %9) #6
  br label %11

11:                                               ; preds = %7, %1
  %12 = phi i1 [ true, %1 ], [ %10, %7 ]
  ret i1 %12
}

; Function Attrs: mustprogress nounwind uwtable
define linkonce_odr void @_ZN17QArrayDataPointerI12QCPDataRangeED2Ev(ptr noundef nonnull align 8 dereferenceable(24) %0) unnamed_addr #2 comdat align 2 personality ptr @__gxx_personality_v0 {
  %2 = alloca ptr, align 8
  store ptr %0, ptr %2, align 8
  %3 = load ptr, ptr %2, align 8
  %4 = call noundef zeroext i1 @_ZN17QArrayDataPointerI12QCPDataRangeE5derefEv(ptr noundef nonnull align 8 dereferenceable(24) %3) #6
  br i1 %4, label %10, label %5

5:                                                ; preds = %1
  %6 = call noundef ptr @_ZN17QArrayDataPointerI12QCPDataRangeEptEv(ptr noundef nonnull align 8 dereferenceable(24) %3) #6
  invoke void @_ZN9QtPrivate16QGenericArrayOpsI12QCPDataRangeE10destroyAllEv(ptr noundef nonnull align 8 dereferenceable(24) %6)
          to label %7 unwind label %11

7:                                                ; preds = %5
  %8 = getelementptr inbounds %struct.QArrayDataPointer.29, ptr %3, i32 0, i32 0
  %9 = load ptr, ptr %8, align 8
  call void @_ZN15QTypedArrayDataI12QCPDataRangeE10deallocateEP10QArrayData(ptr noundef %9) #6
  br label %10

10:                                               ; preds = %7, %1
  ret void

11:                                               ; preds = %5
  %12 = landingpad { ptr, i32 }
          catch ptr null
  %13 = extractvalue { ptr, i32 } %12, 0
  call void @__clang_call_terminate(ptr %13) #7
  unreachable
}

; Function Attrs: mustprogress nounwind uwtable
define linkonce_odr void @_ZN5QListI12QCPDataRangeED2Ev(ptr noundef nonnull align 8 dereferenceable(24) %0) unnamed_addr #2 comdat align 2 {
  %2 = alloca ptr, align 8
  store ptr %0, ptr %2, align 8
  %3 = load ptr, ptr %2, align 8
  %4 = getelementptr inbounds %class.QList.26, ptr %3, i32 0, i32 0
  call void @_ZN17QArrayDataPointerI12QCPDataRangeED2Ev(ptr noundef nonnull align 8 dereferenceable(24) %4) #6
  ret void
}

; Function Attrs: mustprogress nounwind uwtable
define linkonce_odr void @_ZNK20QCPAbstractPlottable3penEv(ptr dead_on_unwind noalias writable sret(%class.QPen) align 8 %0, ptr noundef nonnull align 8 dereferenceable(184) %1) #2 comdat align 2 {
  %3 = alloca ptr, align 8
  %4 = alloca ptr, align 8
  store ptr %0, ptr %3, align 8
  store ptr %1, ptr %4, align 8
  %5 = load ptr, ptr %4, align 8
  %6 = getelementptr inbounds %class.QCPAbstractPlottable, ptr %5, i32 0, i32 4
  call void @_ZN4QPenC1ERKS_(ptr noundef nonnull align 8 dereferenceable(8) %0, ptr noundef nonnull align 8 dereferenceable(8) %6) #6
  ret void
}

; Function Attrs: mustprogress nounwind uwtable
define linkonce_odr void @_ZN16QCPDataSelectionD2Ev(ptr noundef nonnull align 8 dereferenceable(24) %0) unnamed_addr #2 comdat align 2 {
  %2 = alloca ptr, align 8
  store ptr %0, ptr %2, align 8
  %3 = load ptr, ptr %2, align 8
  %4 = getelementptr inbounds %class.QCPDataSelection, ptr %3, i32 0, i32 0
  call void @_ZN5QListI12QCPDataRangeED2Ev(ptr noundef nonnull align 8 dereferenceable(24) %4) #6
  ret void
}

; Function Attrs: mustprogress uwtable
define void @_ZN13RtpAudioGraph11setSelectedEb(ptr noundef nonnull align 8 dereferenceable(44) %0, i1 noundef zeroext %1) #0 align 2 personality ptr @__gxx_personality_v0 {
  %3 = alloca ptr, align 8
  %4 = alloca i8, align 1
  %5 = alloca %class.QCPDataSelection, align 8
  %6 = alloca %class.QCPDataRange, align 4
  %7 = alloca i1, align 1
  %8 = alloca ptr, align 8
  %9 = alloca i32, align 4
  %10 = alloca i1, align 1
  %11 = alloca %class.QPen, align 8
  %12 = alloca %class.QColor, align 4
  store ptr %0, ptr %3, align 8
  %13 = zext i1 %1 to i8
  store i8 %13, ptr %4, align 1
  %14 = load ptr, ptr %3, align 8
  %15 = getelementptr inbounds %class.RtpAudioGraph, ptr %14, i32 0, i32 1
  %16 = load ptr, ptr %15, align 8
  %17 = load i8, ptr %4, align 1
  %18 = trunc i8 %17 to i1
  store i1 false, ptr %7, align 1
  store i1 false, ptr %10, align 1
  br i1 %18, label %19, label %20

19:                                               ; preds = %2
  call void @_ZN12QCPDataRangeC1Ev(ptr noundef nonnull align 4 dereferenceable(8) %6)
  call void @_ZN16QCPDataSelectionC1ERK12QCPDataRange(ptr noundef nonnull align 8 dereferenceable(24) %5, ptr noundef nonnull align 4 dereferenceable(8) %6)
  store i1 true, ptr %7, align 1
  br label %22

20:                                               ; preds = %2
  invoke void @_ZN16QCPDataSelectionC1Ev(ptr noundef nonnull align 8 dereferenceable(24) %5)
          to label %21 unwind label %37

21:                                               ; preds = %20
  store i1 true, ptr %10, align 1
  br label %22

22:                                               ; preds = %21, %19
  invoke void @_ZN20QCPAbstractPlottable12setSelectionE16QCPDataSelection(ptr noundef nonnull align 8 dereferenceable(184) %16, ptr noundef %5)
          to label %23 unwind label %41

23:                                               ; preds = %22
  %24 = load i1, ptr %10, align 1
  br i1 %24, label %25, label %26

25:                                               ; preds = %23
  call void @_ZN16QCPDataSelectionD2Ev(ptr noundef nonnull align 8 dereferenceable(24) %5) #6
  br label %26

26:                                               ; preds = %25, %23
  %27 = load i1, ptr %7, align 1
  br i1 %27, label %28, label %29

28:                                               ; preds = %26
  call void @_ZN16QCPDataSelectionD2Ev(ptr noundef nonnull align 8 dereferenceable(24) %5) #6
  br label %29

29:                                               ; preds = %28, %26
  %30 = getelementptr inbounds %class.RtpAudioGraph, ptr %14, i32 0, i32 1
  %31 = load ptr, ptr %30, align 8
  call void @_ZNK20QCPAbstractPlottable3penEv(ptr dead_on_unwind writable sret(%class.QPen) align 8 %11, ptr noundef nonnull align 8 dereferenceable(184) %31)
  %32 = load i8, ptr %4, align 1
  %33 = trunc i8 %32 to i1
  br i1 %33, label %34, label %56

34:                                               ; preds = %29
  %35 = getelementptr inbounds %class.RtpAudioGraph, ptr %14, i32 0, i32 3
  invoke void @_ZN4QPen8setColorERK6QColor(ptr noundef nonnull align 8 dereferenceable(8) %11, ptr noundef nonnull align 4 dereferenceable(14) %35)
          to label %36 unwind label %52

36:                                               ; preds = %34
  br label %60

37:                                               ; preds = %20
  %38 = landingpad { ptr, i32 }
          cleanup
  %39 = extractvalue { ptr, i32 } %38, 0
  store ptr %39, ptr %8, align 8
  %40 = extractvalue { ptr, i32 } %38, 1
  store i32 %40, ptr %9, align 4
  br label %48

41:                                               ; preds = %22
  %42 = landingpad { ptr, i32 }
          cleanup
  %43 = extractvalue { ptr, i32 } %42, 0
  store ptr %43, ptr %8, align 8
  %44 = extractvalue { ptr, i32 } %42, 1
  store i32 %44, ptr %9, align 4
  %45 = load i1, ptr %10, align 1
  br i1 %45, label %46, label %47

46:                                               ; preds = %41
  call void @_ZN16QCPDataSelectionD2Ev(ptr noundef nonnull align 8 dereferenceable(24) %5) #6
  br label %47

47:                                               ; preds = %46, %41
  br label %48

48:                                               ; preds = %47, %37
  %49 = load i1, ptr %7, align 1
  br i1 %49, label %50, label %51

50:                                               ; preds = %48
  call void @_ZN16QCPDataSelectionD2Ev(ptr noundef nonnull align 8 dereferenceable(24) %5) #6
  br label %51

51:                                               ; preds = %50, %48
  br label %64

52:                                               ; preds = %60, %56, %34
  %53 = landingpad { ptr, i32 }
          cleanup
  %54 = extractvalue { ptr, i32 } %53, 0
  store ptr %54, ptr %8, align 8
  %55 = extractvalue { ptr, i32 } %53, 1
  store i32 %55, ptr %9, align 4
  call void @_ZN4QPenD1Ev(ptr noundef nonnull align 8 dereferenceable(8) %11) #6
  br label %64

56:                                               ; preds = %29
  %57 = getelementptr inbounds %class.RtpAudioGraph, ptr %14, i32 0, i32 2
  %58 = load i32, ptr %57, align 8
  call void @_ZN6QColorC1Ej(ptr noundef nonnull align 4 dereferenceable(14) %12, i32 noundef %58) #6
  invoke void @_ZN4QPen8setColorERK6QColor(ptr noundef nonnull align 8 dereferenceable(8) %11, ptr noundef nonnull align 4 dereferenceable(14) %12)
          to label %59 unwind label %52

59:                                               ; preds = %56
  br label %60

60:                                               ; preds = %59, %36
  %61 = getelementptr inbounds %class.RtpAudioGraph, ptr %14, i32 0, i32 1
  %62 = load ptr, ptr %61, align 8
  invoke void @_ZN20QCPAbstractPlottable6setPenERK4QPen(ptr noundef nonnull align 8 dereferenceable(184) %62, ptr noundef nonnull align 8 dereferenceable(8) %11)
          to label %63 unwind label %52

63:                                               ; preds = %60
  call void @_ZN4QPenD1Ev(ptr noundef nonnull align 8 dereferenceable(8) %11) #6
  ret void

64:                                               ; preds = %52, %51
  %65 = load ptr, ptr %8, align 8
  %66 = load i32, ptr %9, align 4
  %67 = insertvalue { ptr, i32 } poison, ptr %65, 0
  %68 = insertvalue { ptr, i32 } %67, i32 %66, 1
  resume { ptr, i32 } %68
}