; Function Attrs: mustprogress uwtable
define void @_ZN13RtpAudioGraph11setSelectedEb(ptr noundef nonnull align 8 dereferenceable(44) %0, i1 noundef zeroext %1) local_unnamed_addr #0 align 2 personality ptr @__gxx_personality_v0 {
  %3 = alloca %class.QCPDataSelection, align 8
  %4 = alloca %class.QCPDataRange, align 4
  %5 = alloca %class.QPen, align 8
  %6 = alloca %class.QColor, align 4
  %7 = getelementptr inbounds i8, ptr %0, i64 16
  %8 = load ptr, ptr %7, align 8
  br i1 %1, label %9, label %10

9:                                                ; preds = %2
  call void @_ZN12QCPDataRangeC1Ev(ptr noundef nonnull align 4 dereferenceable(8) %4)
  call void @_ZN16QCPDataSelectionC1ERK12QCPDataRange(ptr noundef nonnull align 8 dereferenceable(24) %3, ptr noundef nonnull align 4 dereferenceable(8) %4)
  br label %11

10:                                               ; preds = %2
  call void @_ZN16QCPDataSelectionC1Ev(ptr noundef nonnull align 8 dereferenceable(24) %3)
  br label %11

11:                                               ; preds = %10, %9
  invoke void @_ZN20QCPAbstractPlottable12setSelectionE16QCPDataSelection(ptr noundef nonnull align 8 dereferenceable(184) %8, ptr noundef nonnull %3)
          to label %12 unwind label %28

12:                                               ; preds = %11
  %13 = load ptr, ptr %3, align 8
  %.not.i.i.i.i18 = icmp eq ptr %13, null
  br i1 %1, label %.critedge, label %.critedge17

.critedge17:                                      ; preds = %12
  br i1 %.not.i.i.i.i18, label %_ZN16QCPDataSelectionD2Ev.exit, label %_ZN17QArrayDataPointerI12QCPDataRangeE5derefEv.exit.i.i.i

_ZN17QArrayDataPointerI12QCPDataRangeE5derefEv.exit.i.i.i: ; preds = %.critedge17
  %14 = atomicrmw sub ptr %13, i32 1 seq_cst, align 4
  %.not.i.i.i = icmp eq i32 %14, 1
  br i1 %.not.i.i.i, label %15, label %_ZN16QCPDataSelectionD2Ev.exit

15:                                               ; preds = %_ZN17QArrayDataPointerI12QCPDataRangeE5derefEv.exit.i.i.i
  %16 = load ptr, ptr %3, align 8
  call void @_ZN10QArrayData10deallocateEPS_xx(ptr noundef %16, i64 noundef 8, i64 noundef 8) #5
  br label %_ZN16QCPDataSelectionD2Ev.exit

_ZN16QCPDataSelectionD2Ev.exit:                   ; preds = %.critedge17, %_ZN17QArrayDataPointerI12QCPDataRangeE5derefEv.exit.i.i.i, %15
  %17 = load ptr, ptr %7, align 8
  %18 = getelementptr inbounds i8, ptr %17, i64 96
  call void @_ZN4QPenC1ERKS_(ptr noundef nonnull align 8 dereferenceable(8) %5, ptr noundef nonnull align 8 dereferenceable(8) %18) #5
  %19 = getelementptr inbounds i8, ptr %0, i64 24
  %20 = load i32, ptr %19, align 8
  call void @_ZN6QColorC1Ej(ptr noundef nonnull align 4 dereferenceable(14) %6, i32 noundef %20) #5
  br label %_ZN16QCPDataSelectionD2Ev.exit.invoke

_ZN16QCPDataSelectionD2Ev.exit.invoke:            ; preds = %_ZN16QCPDataSelectionD2Ev.exit21, %_ZN16QCPDataSelectionD2Ev.exit
  %21 = phi ptr [ %6, %_ZN16QCPDataSelectionD2Ev.exit ], [ %27, %_ZN16QCPDataSelectionD2Ev.exit21 ]
  invoke void @_ZN4QPen8setColorERK6QColor(ptr noundef nonnull align 8 dereferenceable(8) %5, ptr noundef nonnull align 4 dereferenceable(14) %21)
          to label %40 unwind label %38

.critedge:                                        ; preds = %12
  br i1 %.not.i.i.i.i18, label %_ZN16QCPDataSelectionD2Ev.exit21, label %_ZN17QArrayDataPointerI12QCPDataRangeE5derefEv.exit.i.i.i19

_ZN17QArrayDataPointerI12QCPDataRangeE5derefEv.exit.i.i.i19: ; preds = %.critedge
  %22 = atomicrmw sub ptr %13, i32 1 seq_cst, align 4
  %.not.i.i.i20 = icmp eq i32 %22, 1
  br i1 %.not.i.i.i20, label %23, label %_ZN16QCPDataSelectionD2Ev.exit21

23:                                               ; preds = %_ZN17QArrayDataPointerI12QCPDataRangeE5derefEv.exit.i.i.i19
  %24 = load ptr, ptr %3, align 8
  call void @_ZN10QArrayData10deallocateEPS_xx(ptr noundef %24, i64 noundef 8, i64 noundef 8) #5
  br label %_ZN16QCPDataSelectionD2Ev.exit21

_ZN16QCPDataSelectionD2Ev.exit21:                 ; preds = %.critedge, %_ZN17QArrayDataPointerI12QCPDataRangeE5derefEv.exit.i.i.i19, %23
  %25 = load ptr, ptr %7, align 8
  %26 = getelementptr inbounds i8, ptr %25, i64 96
  call void @_ZN4QPenC1ERKS_(ptr noundef nonnull align 8 dereferenceable(8) %5, ptr noundef nonnull align 8 dereferenceable(8) %26) #5
  %27 = getelementptr inbounds i8, ptr %0, i64 28
  br label %_ZN16QCPDataSelectionD2Ev.exit.invoke

28:                                               ; preds = %11
  %29 = landingpad { ptr, i32 }
          cleanup
  %30 = load ptr, ptr %3, align 8
  %.not.i.i.i.i26 = icmp eq ptr %30, null
  br i1 %1, label %_ZN16QCPDataSelectionD2Ev.exit25, label %31

31:                                               ; preds = %28
  br i1 %.not.i.i.i.i26, label %_ZN16QCPDataSelectionD2Ev.exit29, label %_ZN17QArrayDataPointerI12QCPDataRangeE5derefEv.exit.i.i.i23

_ZN17QArrayDataPointerI12QCPDataRangeE5derefEv.exit.i.i.i23: ; preds = %31
  %32 = atomicrmw sub ptr %30, i32 1 seq_cst, align 4
  %.not.i.i.i24 = icmp eq i32 %32, 1
  br i1 %.not.i.i.i24, label %33, label %_ZN16QCPDataSelectionD2Ev.exit29

33:                                               ; preds = %_ZN17QArrayDataPointerI12QCPDataRangeE5derefEv.exit.i.i.i23
  %34 = load ptr, ptr %3, align 8
  call void @_ZN10QArrayData10deallocateEPS_xx(ptr noundef %34, i64 noundef 8, i64 noundef 8) #5
  br label %_ZN16QCPDataSelectionD2Ev.exit29

_ZN16QCPDataSelectionD2Ev.exit25:                 ; preds = %28
  br i1 %.not.i.i.i.i26, label %_ZN16QCPDataSelectionD2Ev.exit29, label %_ZN17QArrayDataPointerI12QCPDataRangeE5derefEv.exit.i.i.i27

_ZN17QArrayDataPointerI12QCPDataRangeE5derefEv.exit.i.i.i27: ; preds = %_ZN16QCPDataSelectionD2Ev.exit25
  %35 = atomicrmw sub ptr %30, i32 1 seq_cst, align 4
  %.not.i.i.i28 = icmp eq i32 %35, 1
  br i1 %.not.i.i.i28, label %36, label %_ZN16QCPDataSelectionD2Ev.exit29

36:                                               ; preds = %_ZN17QArrayDataPointerI12QCPDataRangeE5derefEv.exit.i.i.i27
  %37 = load ptr, ptr %3, align 8
  call void @_ZN10QArrayData10deallocateEPS_xx(ptr noundef %37, i64 noundef 8, i64 noundef 8) #5
  br label %_ZN16QCPDataSelectionD2Ev.exit29

38:                                               ; preds = %_ZN16QCPDataSelectionD2Ev.exit.invoke, %40
  %39 = landingpad { ptr, i32 }
          cleanup
  call void @_ZN4QPenD1Ev(ptr noundef nonnull align 8 dereferenceable(8) %5) #5
  br label %_ZN16QCPDataSelectionD2Ev.exit29

40:                                               ; preds = %_ZN16QCPDataSelectionD2Ev.exit.invoke
  %41 = load ptr, ptr %7, align 8
  invoke void @_ZN20QCPAbstractPlottable6setPenERK4QPen(ptr noundef nonnull align 8 dereferenceable(184) %41, ptr noundef nonnull align 8 dereferenceable(8) %5)
          to label %42 unwind label %38

42:                                               ; preds = %40
  call void @_ZN4QPenD1Ev(ptr noundef nonnull align 8 dereferenceable(8) %5) #5
  ret void

_ZN16QCPDataSelectionD2Ev.exit29:                 ; preds = %33, %_ZN17QArrayDataPointerI12QCPDataRangeE5derefEv.exit.i.i.i23, %31, %36, %_ZN17QArrayDataPointerI12QCPDataRangeE5derefEv.exit.i.i.i27, %_ZN16QCPDataSelectionD2Ev.exit25, %38
  %.pn14 = phi { ptr, i32 } [ %39, %38 ], [ %29, %_ZN16QCPDataSelectionD2Ev.exit25 ], [ %29, %_ZN17QArrayDataPointerI12QCPDataRangeE5derefEv.exit.i.i.i27 ], [ %29, %36 ], [ %29, %33 ], [ %29, %_ZN17QArrayDataPointerI12QCPDataRangeE5derefEv.exit.i.i.i23 ], [ %29, %31 ]
  resume { ptr, i32 } %.pn14
}